target datalayout = "e-m:e-p270:32:32-p271:32:32-p272:64:64-i64:64-i128:128-f80:128-n8:16:32:64-S128"
target triple = "x86_64-pc-linux-gnu"

%"class.base::BasicStringPiece.0" = type { ptr, i64 }

; Function Attrs: mustprogress nounwind uwtable
define weak_odr noundef zeroext i16 @_ZNK4base16BasicStringPieceINSt7__cxx1112basic_stringItNS_20string16_char_traitsESaItEEEEixEm(ptr noundef nonnull align 8 dereferenceable(16) %0, i64 noundef %1) #0 comdat align 2 {
  %3 = alloca ptr, align 8
  %4 = alloca i64, align 8
  store ptr %0, ptr %3, align 8, !tbaa !43
  store i64 %1, ptr %4, align 8, !tbaa !19
  %5 = load ptr, ptr %3, align 8
  %6 = getelementptr inbounds nuw %"class.base::BasicStringPiece.0", ptr %5, i32 0, i32 0
  %7 = load ptr, ptr %6, align 8, !tbaa !45
  %8 = load i64, ptr %4, align 8, !tbaa !19
  %9 = getelementptr inbounds nuw i16, ptr %7, i64 %8
  %10 = load i16, ptr %9, align 2, !tbaa !60
  ret i16 %10
}

; Function Attrs: mustprogress nounwind uwtable
define weak_odr noundef ptr @_ZNK4base16BasicStringPieceINSt7__cxx1112basic_stringItNS_20string16_char_traitsESaItEEEE4dataEv(ptr noundef nonnull align 8 dereferenceable(16) %0) #0 comdat align 2 {
  %2 = alloca ptr, align 8
  store ptr %0, ptr %2, align 8, !tbaa !43
  %3 = load ptr, ptr %2, align 8
  %4 = getelementptr inbounds nuw %"class.base::BasicStringPiece.0", ptr %3, i32 0, i32 0
  %5 = load ptr, ptr %4, align 8, !tbaa !45
  ret ptr %5
}

; Function Attrs: inlinehint mustprogress nounwind uwtable
define linkonce_odr noundef nonnull align 8 dereferenceable(8) ptr @_ZSt3minImERKT_S2_S2_(ptr noundef nonnull align 8 dereferenceable(8) %0, ptr noundef nonnull align 8 dereferenceable(8) %1) #7 comdat {
  %3 = alloca ptr, align 8
  %4 = alloca ptr, align 8
  %5 = alloca ptr, align 8
  store ptr %0, ptr %4, align 8, !tbaa !85
  store ptr %1, ptr %5, align 8, !tbaa !85
  %6 = load ptr, ptr %5, align 8, !tbaa !85
  %7 = load i64, ptr %6, align 8, !tbaa !19
  %8 = load ptr, ptr %4, align 8, !tbaa !85
  %9 = load i64, ptr %8, align 8, !tbaa !19
  %10 = icmp ult i64 %7, %9
  br i1 %10, label %11, label %13

11:                                               ; preds = %2
  %12 = load ptr, ptr %5, align 8, !tbaa !85
  store ptr %12, ptr %3, align 8
  br label %15

13:                                               ; preds = %2
  %14 = load ptr, ptr %4, align 8, !tbaa !85
  store ptr %14, ptr %3, align 8
  br label %15

15:                                               ; preds = %13, %11
  %16 = load ptr, ptr %3, align 8
  ret ptr %16
}

; Function Attrs: mustprogress nounwind uwtable
define weak_odr noundef i64 @_ZNK4base16BasicStringPieceINSt7__cxx1112basic_stringItNS_20string16_char_traitsESaItEEEE4sizeEv(ptr noundef nonnull align 8 dereferenceable(16) %0) #0 comdat align 2 {
  %2 = alloca ptr, align 8
  store ptr %0, ptr %2, align 8, !tbaa !43
  %3 = load ptr, ptr %2, align 8
  %4 = getelementptr inbounds nuw %"class.base::BasicStringPiece.0", ptr %3, i32 0, i32 1
  %5 = load i64, ptr %4, align 8, !tbaa !48
  ret i64 %5
}

; Function Attrs: mustprogress uwtable
define noundef i64 @_ZN4base8internal12find_last_ofERKNS_16BasicStringPieceINSt7__cxx1112basic_stringItNS_20string16_char_traitsESaItEEEEES9_m(ptr noundef nonnull align 8 dereferenceable(16) %0, ptr noundef nonnull align 8 dereferenceable(16) %1, i64 noundef %2) #1 {
  %4 = alloca i64, align 8
  %5 = alloca ptr, align 8
  %6 = alloca ptr, align 8
  %7 = alloca i64, align 8
  %8 = alloca i64, align 8
  %9 = alloca i64, align 8
  %10 = alloca i64, align 8
  %11 = alloca i32, align 4
  store ptr %0, ptr %5, align 8, !tbaa !43
  store ptr %1, ptr %6, align 8, !tbaa !43
  store i64 %2, ptr %7, align 8, !tbaa !19
  %12 = load ptr, ptr %5, align 8, !tbaa !43
  %13 = call noundef i64 @_ZNK4base16BasicStringPieceINSt7__cxx1112basic_stringItNS_20string16_char_traitsESaItEEEE4sizeEv(ptr noundef nonnull align 8 dereferenceable(16) %12)
  %14 = icmp eq i64 %13, 0
  br i1 %14, label %15, label %16

15:                                               ; preds = %3
  store i64 -1, ptr %4, align 8
  br label %60

16:                                               ; preds = %3
  call void @llvm.lifetime.start.p0(i64 8, ptr %8) #14
  call void @llvm.lifetime.start.p0(i64 8, ptr %9) #14
  %17 = load ptr, ptr %5, align 8, !tbaa !43
  %18 = call noundef i64 @_ZNK4base16BasicStringPieceINSt7__cxx1112basic_stringItNS_20string16_char_traitsESaItEEEE4sizeEv(ptr noundef nonnull align 8 dereferenceable(16) %17)
  %19 = sub i64 %18, 1
  store i64 %19, ptr %9, align 8, !tbaa !19
  %20 = call noundef nonnull align 8 dereferenceable(8) ptr @_ZSt3minImERKT_S2_S2_(ptr noundef nonnull align 8 dereferenceable(8) %7, ptr noundef nonnull align 8 dereferenceable(8) %9)
  %21 = load i64, ptr %20, align 8, !tbaa !19
  call void @llvm.lifetime.end.p0(i64 8, ptr %9) #14
  store i64 %21, ptr %8, align 8, !tbaa !19
  br label %22

22:                                               ; preds = %54, %16
  call void @llvm.lifetime.start.p0(i64 8, ptr %10) #14
  store i64 0, ptr %10, align 8, !tbaa !19
  br label %23

23:                                               ; preds = %44, %22
  %24 = load i64, ptr %10, align 8, !tbaa !19
  %25 = load ptr, ptr %6, align 8, !tbaa !43
  %26 = call noundef i64 @_ZNK4base16BasicStringPieceINSt7__cxx1112basic_stringItNS_20string16_char_traitsESaItEEEE4sizeEv(ptr noundef nonnull align 8 dereferenceable(16) %25)
  %27 = icmp ult i64 %24, %26
  br i1 %27, label %29, label %28

28:                                               ; preds = %23
  store i32 5, ptr %11, align 4
  br label %47

29:                                               ; preds = %23
  %30 = load ptr, ptr %5, align 8, !tbaa !43
  %31 = call noundef ptr @_ZNK4base16BasicStringPieceINSt7__cxx1112basic_stringItNS_20string16_char_traitsESaItEEEE4dataEv(ptr noundef nonnull align 8 dereferenceable(16) %30)
  %32 = load i64, ptr %8, align 8, !tbaa !19
  %33 = getelementptr inbounds nuw i16, ptr %31, i64 %32
  %34 = load i16, ptr %33, align 2, !tbaa !60
  %35 = zext i16 %34 to i32
  %36 = load ptr, ptr %6, align 8, !tbaa !43
  %37 = load i64, ptr %10, align 8, !tbaa !19
  %38 = call noundef zeroext i16 @_ZNK4base16BasicStringPieceINSt7__cxx1112basic_stringItNS_20string16_char_traitsESaItEEEEixEm(ptr noundef nonnull align 8 dereferenceable(16) %36, i64 noundef %37)
  %39 = zext i16 %38 to i32
  %40 = icmp eq i32 %35, %39
  br i1 %40, label %41, label %43

41:                                               ; preds = %29
  %42 = load i64, ptr %8, align 8, !tbaa !19
  store i64 %42, ptr %4, align 8
  store i32 1, ptr %11, align 4
  br label %47

43:                                               ; preds = %29
  br label %44

44:                                               ; preds = %43
  %45 = load i64, ptr %10, align 8, !tbaa !19
  %46 = add i64 %45, 1
  store i64 %46, ptr %10, align 8, !tbaa !19
  br label %23, !llvm.loop !70

47:                                               ; preds = %41, %28
  call void @llvm.lifetime.end.p0(i64 8, ptr %10) #14
  %48 = load i32, ptr %11, align 4
  switch i32 %48, label %57 [
    i32 5, label %49
  ]

49:                                               ; preds = %47
  %50 = load i64, ptr %8, align 8, !tbaa !19
  %51 = icmp eq i64 %50, 0
  br i1 %51, label %52, label %53

52:                                               ; preds = %49
  store i32 2, ptr %11, align 4
  br label %57

53:                                               ; preds = %49
  br label %54

54:                                               ; preds = %53
  %55 = load i64, ptr %8, align 8, !tbaa !19
  %56 = add i64 %55, -1
  store i64 %56, ptr %8, align 8, !tbaa !19
  br label %22, !llvm.loop !71

57:                                               ; preds = %52, %47
  call void @llvm.lifetime.end.p0(i64 8, ptr %8) #14
  %58 = load i32, ptr %11, align 4
  switch i32 %58, label %62 [
    i32 1, label %60
    i32 2, label %59
  ]

59:                                               ; preds = %57
  store i64 -1, ptr %4, align 8
  br label %60

60:                                               ; preds = %59, %57, %15
  %61 = load i64, ptr %4, align 8
  ret i64 %61

62:                                               ; preds = %57
  unreachable
}