; Function Attrs: mustprogress nofree norecurse nosync nounwind willreturn memory(read, inaccessiblemem: none) uwtable
define noundef i64 @_ZN4base8internal12find_last_ofERKNS_16BasicStringPieceINSt7__cxx1112basic_stringItNS_20string16_char_traitsESaItEEEEES9_m(ptr noundef nonnull readonly align 8 captures(none) dereferenceable(16) %0, ptr noundef nonnull readonly align 8 captures(none) dereferenceable(16) %1, i64 noundef %2) local_unnamed_addr #5 {
  %4 = getelementptr inbounds nuw i8, ptr %0, i64 8
  %5 = load i64, ptr %4, align 8, !tbaa !38
  %6 = icmp eq i64 %5, 0
  br i1 %6, label %.thread, label %7

7:                                                ; preds = %3
  %8 = getelementptr inbounds nuw i8, ptr %1, i64 8
  %9 = load i64, ptr %8, align 8, !tbaa !38
  %.not26.not = icmp eq i64 %9, 0
  %10 = load ptr, ptr %0, align 8
  %11 = load ptr, ptr %1, align 8
  br i1 %.not26.not, label %.thread, label %.lr.ph.us.preheader

.lr.ph.us.preheader:                              ; preds = %7
  %12 = add i64 %5, -1
  %.sroa.speculated = tail call i64 @llvm.umin.i64(i64 %12, i64 %2)
  br label %.lr.ph.us

.lr.ph.us:                                        ; preds = %.lr.ph.us.preheader, %17
  %.015.us = phi i64 [ %18, %17 ], [ %.sroa.speculated, %.lr.ph.us.preheader ]
  %13 = getelementptr inbounds nuw i16, ptr %10, i64 %.015.us
  %14 = load i16, ptr %13, align 2, !tbaa !44
  br label %19

15:                                               ; preds = %19
  %16 = add nuw i64 %.01427.us, 1
  %exitcond.not = icmp eq i64 %16, %9
  br i1 %exitcond.not, label %._crit_edge.us, label %19, !llvm.loop !56

17:                                               ; preds = %._crit_edge.us
  %18 = add i64 %.015.us, -1
  br label %.lr.ph.us, !llvm.loop !57

19:                                               ; preds = %.lr.ph.us, %15
  %.01427.us = phi i64 [ 0, %.lr.ph.us ], [ %16, %15 ]
  %20 = getelementptr inbounds nuw i16, ptr %11, i64 %.01427.us
  %21 = load i16, ptr %20, align 2, !tbaa !44
  %22 = icmp eq i16 %14, %21
  br i1 %22, label %.thread, label %15

._crit_edge.us:                                   ; preds = %15
  %23 = icmp eq i64 %.015.us, 0
  br i1 %23, label %.thread, label %17

.thread:                                          ; preds = %._crit_edge.us, %19, %7, %3
  %.016 = phi i64 [ -1, %3 ], [ -1, %7 ], [ %.015.us, %19 ], [ -1, %._crit_edge.us ]
  ret i64 %.016
}